ARM GAS  /tmp/ccXRs0DP.s 			page 1


   1              		.cpu cortex-m4
   2              		.arch armv7e-m
   3              		.fpu fpv4-sp-d16
   4              		.eabi_attribute 27, 1
   5              		.eabi_attribute 28, 1
   6              		.eabi_attribute 20, 1
   7              		.eabi_attribute 21, 1
   8              		.eabi_attribute 23, 3
   9              		.eabi_attribute 24, 1
  10              		.eabi_attribute 25, 1
  11              		.eabi_attribute 26, 1
  12              		.eabi_attribute 30, 1
  13              		.eabi_attribute 34, 1
  14              		.eabi_attribute 18, 4
  15              		.file	"stm32f4xx_hal_msp.c"
  16              		.text
  17              	.Ltext0:
  18              		.cfi_sections	.debug_frame
  19              		.file 1 "Core/Src/stm32f4xx_hal_msp.c"
  20              		.section	.text.HAL_MspInit,"ax",%progbits
  21              		.align	1
  22              		.global	HAL_MspInit
  23              		.syntax unified
  24              		.thumb
  25              		.thumb_func
  27              	HAL_MspInit:
  28              	.LFB134:
   1:Core/Src/stm32f4xx_hal_msp.c **** /* USER CODE BEGIN Header */
   2:Core/Src/stm32f4xx_hal_msp.c **** /**
   3:Core/Src/stm32f4xx_hal_msp.c ****   ******************************************************************************
   4:Core/Src/stm32f4xx_hal_msp.c ****   * @file         stm32f4xx_hal_msp.c
   5:Core/Src/stm32f4xx_hal_msp.c ****   * @brief        This file provides code for the MSP Initialization
   6:Core/Src/stm32f4xx_hal_msp.c ****   *               and de-Initialization codes.
   7:Core/Src/stm32f4xx_hal_msp.c ****   ******************************************************************************
   8:Core/Src/stm32f4xx_hal_msp.c ****   * @attention
   9:Core/Src/stm32f4xx_hal_msp.c ****   *
  10:Core/Src/stm32f4xx_hal_msp.c ****   * Copyright (c) 2026 STMicroelectronics.
  11:Core/Src/stm32f4xx_hal_msp.c ****   * All rights reserved.
  12:Core/Src/stm32f4xx_hal_msp.c ****   *
  13:Core/Src/stm32f4xx_hal_msp.c ****   * This software is licensed under terms that can be found in the LICENSE file
  14:Core/Src/stm32f4xx_hal_msp.c ****   * in the root directory of this software component.
  15:Core/Src/stm32f4xx_hal_msp.c ****   * If no LICENSE file comes with this software, it is provided AS-IS.
  16:Core/Src/stm32f4xx_hal_msp.c ****   *
  17:Core/Src/stm32f4xx_hal_msp.c ****   ******************************************************************************
  18:Core/Src/stm32f4xx_hal_msp.c ****   */
  19:Core/Src/stm32f4xx_hal_msp.c **** /* USER CODE END Header */
  20:Core/Src/stm32f4xx_hal_msp.c **** /* Includes ------------------------------------------------------------------*/
  21:Core/Src/stm32f4xx_hal_msp.c **** #include "main.h"
  22:Core/Src/stm32f4xx_hal_msp.c **** /* USER CODE BEGIN Includes */
  23:Core/Src/stm32f4xx_hal_msp.c **** 
  24:Core/Src/stm32f4xx_hal_msp.c **** /* USER CODE END Includes */
  25:Core/Src/stm32f4xx_hal_msp.c **** 
  26:Core/Src/stm32f4xx_hal_msp.c **** /* Private typedef -----------------------------------------------------------*/
  27:Core/Src/stm32f4xx_hal_msp.c **** /* USER CODE BEGIN TD */
  28:Core/Src/stm32f4xx_hal_msp.c **** 
  29:Core/Src/stm32f4xx_hal_msp.c **** /* USER CODE END TD */
  30:Core/Src/stm32f4xx_hal_msp.c **** 
ARM GAS  /tmp/ccXRs0DP.s 			page 2


  31:Core/Src/stm32f4xx_hal_msp.c **** /* Private define ------------------------------------------------------------*/
  32:Core/Src/stm32f4xx_hal_msp.c **** /* USER CODE BEGIN Define */
  33:Core/Src/stm32f4xx_hal_msp.c **** 
  34:Core/Src/stm32f4xx_hal_msp.c **** /* USER CODE END Define */
  35:Core/Src/stm32f4xx_hal_msp.c **** 
  36:Core/Src/stm32f4xx_hal_msp.c **** /* Private macro -------------------------------------------------------------*/
  37:Core/Src/stm32f4xx_hal_msp.c **** /* USER CODE BEGIN Macro */
  38:Core/Src/stm32f4xx_hal_msp.c **** 
  39:Core/Src/stm32f4xx_hal_msp.c **** /* USER CODE END Macro */
  40:Core/Src/stm32f4xx_hal_msp.c **** 
  41:Core/Src/stm32f4xx_hal_msp.c **** /* Private variables ---------------------------------------------------------*/
  42:Core/Src/stm32f4xx_hal_msp.c **** /* USER CODE BEGIN PV */
  43:Core/Src/stm32f4xx_hal_msp.c **** 
  44:Core/Src/stm32f4xx_hal_msp.c **** /* USER CODE END PV */
  45:Core/Src/stm32f4xx_hal_msp.c **** 
  46:Core/Src/stm32f4xx_hal_msp.c **** /* Private function prototypes -----------------------------------------------*/
  47:Core/Src/stm32f4xx_hal_msp.c **** /* USER CODE BEGIN PFP */
  48:Core/Src/stm32f4xx_hal_msp.c **** 
  49:Core/Src/stm32f4xx_hal_msp.c **** /* USER CODE END PFP */
  50:Core/Src/stm32f4xx_hal_msp.c **** 
  51:Core/Src/stm32f4xx_hal_msp.c **** /* External functions --------------------------------------------------------*/
  52:Core/Src/stm32f4xx_hal_msp.c **** /* USER CODE BEGIN ExternalFunctions */
  53:Core/Src/stm32f4xx_hal_msp.c **** 
  54:Core/Src/stm32f4xx_hal_msp.c **** /* USER CODE END ExternalFunctions */
  55:Core/Src/stm32f4xx_hal_msp.c **** 
  56:Core/Src/stm32f4xx_hal_msp.c **** /* USER CODE BEGIN 0 */
  57:Core/Src/stm32f4xx_hal_msp.c **** 
  58:Core/Src/stm32f4xx_hal_msp.c **** /* USER CODE END 0 */
  59:Core/Src/stm32f4xx_hal_msp.c **** /**
  60:Core/Src/stm32f4xx_hal_msp.c ****   * Initializes the Global MSP.
  61:Core/Src/stm32f4xx_hal_msp.c ****   */
  62:Core/Src/stm32f4xx_hal_msp.c **** void HAL_MspInit(void)
  63:Core/Src/stm32f4xx_hal_msp.c **** {
  29              		.loc 1 63 1 view -0
  30              		.cfi_startproc
  31              		@ args = 0, pretend = 0, frame = 8
  32              		@ frame_needed = 0, uses_anonymous_args = 0
  33              		@ link register save eliminated.
  34 0000 82B0     		sub	sp, sp, #8
  35              	.LCFI0:
  36              		.cfi_def_cfa_offset 8
  64:Core/Src/stm32f4xx_hal_msp.c **** 
  65:Core/Src/stm32f4xx_hal_msp.c ****   /* USER CODE BEGIN MspInit 0 */
  66:Core/Src/stm32f4xx_hal_msp.c **** 
  67:Core/Src/stm32f4xx_hal_msp.c ****   /* USER CODE END MspInit 0 */
  68:Core/Src/stm32f4xx_hal_msp.c **** 
  69:Core/Src/stm32f4xx_hal_msp.c ****   __HAL_RCC_SYSCFG_CLK_ENABLE();
  37              		.loc 1 69 3 view .LVU1
  38              	.LBB2:
  39              		.loc 1 69 3 view .LVU2
  40 0002 0021     		movs	r1, #0
  41 0004 0091     		str	r1, [sp]
  42              		.loc 1 69 3 view .LVU3
  43 0006 0B4B     		ldr	r3, .L3
  44 0008 5A6C     		ldr	r2, [r3, #68]
  45 000a 42F48042 		orr	r2, r2, #16384
  46 000e 5A64     		str	r2, [r3, #68]
ARM GAS  /tmp/ccXRs0DP.s 			page 3


  47              		.loc 1 69 3 view .LVU4
  48 0010 5A6C     		ldr	r2, [r3, #68]
  49 0012 02F48042 		and	r2, r2, #16384
  50 0016 0092     		str	r2, [sp]
  51              		.loc 1 69 3 view .LVU5
  52 0018 009A     		ldr	r2, [sp]
  53              	.LBE2:
  54              		.loc 1 69 3 view .LVU6
  70:Core/Src/stm32f4xx_hal_msp.c ****   __HAL_RCC_PWR_CLK_ENABLE();
  55              		.loc 1 70 3 view .LVU7
  56              	.LBB3:
  57              		.loc 1 70 3 view .LVU8
  58 001a 0191     		str	r1, [sp, #4]
  59              		.loc 1 70 3 view .LVU9
  60 001c 1A6C     		ldr	r2, [r3, #64]
  61 001e 42F08052 		orr	r2, r2, #268435456
  62 0022 1A64     		str	r2, [r3, #64]
  63              		.loc 1 70 3 view .LVU10
  64 0024 1B6C     		ldr	r3, [r3, #64]
  65 0026 03F08053 		and	r3, r3, #268435456
  66 002a 0193     		str	r3, [sp, #4]
  67              		.loc 1 70 3 view .LVU11
  68 002c 019B     		ldr	r3, [sp, #4]
  69              	.LBE3:
  70              		.loc 1 70 3 view .LVU12
  71:Core/Src/stm32f4xx_hal_msp.c **** 
  72:Core/Src/stm32f4xx_hal_msp.c ****   /* System interrupt init*/
  73:Core/Src/stm32f4xx_hal_msp.c **** 
  74:Core/Src/stm32f4xx_hal_msp.c ****   /* USER CODE BEGIN MspInit 1 */
  75:Core/Src/stm32f4xx_hal_msp.c **** 
  76:Core/Src/stm32f4xx_hal_msp.c ****   /* USER CODE END MspInit 1 */
  77:Core/Src/stm32f4xx_hal_msp.c **** }
  71              		.loc 1 77 1 is_stmt 0 view .LVU13
  72 002e 02B0     		add	sp, sp, #8
  73              	.LCFI1:
  74              		.cfi_def_cfa_offset 0
  75              		@ sp needed
  76 0030 7047     		bx	lr
  77              	.L4:
  78 0032 00BF     		.align	2
  79              	.L3:
  80 0034 00380240 		.word	1073887232
  81              		.cfi_endproc
  82              	.LFE134:
  84              		.section	.text.HAL_SPI_MspInit,"ax",%progbits
  85              		.align	1
  86              		.global	HAL_SPI_MspInit
  87              		.syntax unified
  88              		.thumb
  89              		.thumb_func
  91              	HAL_SPI_MspInit:
  92              	.LVL0:
  93              	.LFB135:
  78:Core/Src/stm32f4xx_hal_msp.c **** 
  79:Core/Src/stm32f4xx_hal_msp.c **** /**
  80:Core/Src/stm32f4xx_hal_msp.c ****   * @brief SPI MSP Initialization
  81:Core/Src/stm32f4xx_hal_msp.c ****   * This function configures the hardware resources used in this example
ARM GAS  /tmp/ccXRs0DP.s 			page 4


  82:Core/Src/stm32f4xx_hal_msp.c ****   * @param hspi: SPI handle pointer
  83:Core/Src/stm32f4xx_hal_msp.c ****   * @retval None
  84:Core/Src/stm32f4xx_hal_msp.c ****   */
  85:Core/Src/stm32f4xx_hal_msp.c **** void HAL_SPI_MspInit(SPI_HandleTypeDef* hspi)
  86:Core/Src/stm32f4xx_hal_msp.c **** {
  94              		.loc 1 86 1 is_stmt 1 view -0
  95              		.cfi_startproc
  96              		@ args = 0, pretend = 0, frame = 32
  97              		@ frame_needed = 0, uses_anonymous_args = 0
  98              		.loc 1 86 1 is_stmt 0 view .LVU15
  99 0000 00B5     		push	{lr}
 100              	.LCFI2:
 101              		.cfi_def_cfa_offset 4
 102              		.cfi_offset 14, -4
 103 0002 89B0     		sub	sp, sp, #36
 104              	.LCFI3:
 105              		.cfi_def_cfa_offset 40
  87:Core/Src/stm32f4xx_hal_msp.c ****   GPIO_InitTypeDef GPIO_InitStruct = {0};
 106              		.loc 1 87 3 is_stmt 1 view .LVU16
 107              		.loc 1 87 20 is_stmt 0 view .LVU17
 108 0004 0023     		movs	r3, #0
 109 0006 0393     		str	r3, [sp, #12]
 110 0008 0493     		str	r3, [sp, #16]
 111 000a 0593     		str	r3, [sp, #20]
 112 000c 0693     		str	r3, [sp, #24]
 113 000e 0793     		str	r3, [sp, #28]
  88:Core/Src/stm32f4xx_hal_msp.c ****   if(hspi->Instance==SPI1)
 114              		.loc 1 88 3 is_stmt 1 view .LVU18
 115              		.loc 1 88 10 is_stmt 0 view .LVU19
 116 0010 0268     		ldr	r2, [r0]
 117              		.loc 1 88 5 view .LVU20
 118 0012 144B     		ldr	r3, .L9
 119 0014 9A42     		cmp	r2, r3
 120 0016 01D0     		beq	.L8
 121              	.LVL1:
 122              	.L5:
  89:Core/Src/stm32f4xx_hal_msp.c ****   {
  90:Core/Src/stm32f4xx_hal_msp.c ****     /* USER CODE BEGIN SPI1_MspInit 0 */
  91:Core/Src/stm32f4xx_hal_msp.c **** 
  92:Core/Src/stm32f4xx_hal_msp.c ****     /* USER CODE END SPI1_MspInit 0 */
  93:Core/Src/stm32f4xx_hal_msp.c ****     /* Peripheral clock enable */
  94:Core/Src/stm32f4xx_hal_msp.c ****     __HAL_RCC_SPI1_CLK_ENABLE();
  95:Core/Src/stm32f4xx_hal_msp.c **** 
  96:Core/Src/stm32f4xx_hal_msp.c ****     __HAL_RCC_GPIOA_CLK_ENABLE();
  97:Core/Src/stm32f4xx_hal_msp.c ****     /**SPI1 GPIO Configuration
  98:Core/Src/stm32f4xx_hal_msp.c ****     PA5     ------> SPI1_SCK
  99:Core/Src/stm32f4xx_hal_msp.c ****     PA6     ------> SPI1_MISO
 100:Core/Src/stm32f4xx_hal_msp.c ****     PA7     ------> SPI1_MOSI
 101:Core/Src/stm32f4xx_hal_msp.c ****     */
 102:Core/Src/stm32f4xx_hal_msp.c ****     GPIO_InitStruct.Pin = GPIO_PIN_5|GPIO_PIN_6|GPIO_PIN_7;
 103:Core/Src/stm32f4xx_hal_msp.c ****     GPIO_InitStruct.Mode = GPIO_MODE_AF_PP;
 104:Core/Src/stm32f4xx_hal_msp.c ****     GPIO_InitStruct.Pull = GPIO_NOPULL;
 105:Core/Src/stm32f4xx_hal_msp.c ****     GPIO_InitStruct.Speed = GPIO_SPEED_FREQ_VERY_HIGH;
 106:Core/Src/stm32f4xx_hal_msp.c ****     GPIO_InitStruct.Alternate = GPIO_AF5_SPI1;
 107:Core/Src/stm32f4xx_hal_msp.c ****     HAL_GPIO_Init(GPIOA, &GPIO_InitStruct);
 108:Core/Src/stm32f4xx_hal_msp.c **** 
 109:Core/Src/stm32f4xx_hal_msp.c ****     /* USER CODE BEGIN SPI1_MspInit 1 */
ARM GAS  /tmp/ccXRs0DP.s 			page 5


 110:Core/Src/stm32f4xx_hal_msp.c **** 
 111:Core/Src/stm32f4xx_hal_msp.c ****     /* USER CODE END SPI1_MspInit 1 */
 112:Core/Src/stm32f4xx_hal_msp.c **** 
 113:Core/Src/stm32f4xx_hal_msp.c ****   }
 114:Core/Src/stm32f4xx_hal_msp.c **** 
 115:Core/Src/stm32f4xx_hal_msp.c **** }
 123              		.loc 1 115 1 view .LVU21
 124 0018 09B0     		add	sp, sp, #36
 125              	.LCFI4:
 126              		.cfi_remember_state
 127              		.cfi_def_cfa_offset 4
 128              		@ sp needed
 129 001a 00BD     		pop	{pc}
 130              	.LVL2:
 131              	.L8:
 132              	.LCFI5:
 133              		.cfi_restore_state
  94:Core/Src/stm32f4xx_hal_msp.c **** 
 134              		.loc 1 94 5 is_stmt 1 view .LVU22
 135              	.LBB4:
  94:Core/Src/stm32f4xx_hal_msp.c **** 
 136              		.loc 1 94 5 view .LVU23
 137 001c 0021     		movs	r1, #0
 138 001e 0191     		str	r1, [sp, #4]
  94:Core/Src/stm32f4xx_hal_msp.c **** 
 139              		.loc 1 94 5 view .LVU24
 140 0020 03F58433 		add	r3, r3, #67584
 141 0024 5A6C     		ldr	r2, [r3, #68]
 142 0026 42F48052 		orr	r2, r2, #4096
 143 002a 5A64     		str	r2, [r3, #68]
  94:Core/Src/stm32f4xx_hal_msp.c **** 
 144              		.loc 1 94 5 view .LVU25
 145 002c 5A6C     		ldr	r2, [r3, #68]
 146 002e 02F48052 		and	r2, r2, #4096
 147 0032 0192     		str	r2, [sp, #4]
  94:Core/Src/stm32f4xx_hal_msp.c **** 
 148              		.loc 1 94 5 view .LVU26
 149 0034 019A     		ldr	r2, [sp, #4]
 150              	.LBE4:
  94:Core/Src/stm32f4xx_hal_msp.c **** 
 151              		.loc 1 94 5 view .LVU27
  96:Core/Src/stm32f4xx_hal_msp.c ****     /**SPI1 GPIO Configuration
 152              		.loc 1 96 5 view .LVU28
 153              	.LBB5:
  96:Core/Src/stm32f4xx_hal_msp.c ****     /**SPI1 GPIO Configuration
 154              		.loc 1 96 5 view .LVU29
 155 0036 0291     		str	r1, [sp, #8]
  96:Core/Src/stm32f4xx_hal_msp.c ****     /**SPI1 GPIO Configuration
 156              		.loc 1 96 5 view .LVU30
 157 0038 1A6B     		ldr	r2, [r3, #48]
 158 003a 42F00102 		orr	r2, r2, #1
 159 003e 1A63     		str	r2, [r3, #48]
  96:Core/Src/stm32f4xx_hal_msp.c ****     /**SPI1 GPIO Configuration
 160              		.loc 1 96 5 view .LVU31
 161 0040 1B6B     		ldr	r3, [r3, #48]
 162 0042 03F00103 		and	r3, r3, #1
 163 0046 0293     		str	r3, [sp, #8]
ARM GAS  /tmp/ccXRs0DP.s 			page 6


  96:Core/Src/stm32f4xx_hal_msp.c ****     /**SPI1 GPIO Configuration
 164              		.loc 1 96 5 view .LVU32
 165 0048 029B     		ldr	r3, [sp, #8]
 166              	.LBE5:
  96:Core/Src/stm32f4xx_hal_msp.c ****     /**SPI1 GPIO Configuration
 167              		.loc 1 96 5 view .LVU33
 102:Core/Src/stm32f4xx_hal_msp.c ****     GPIO_InitStruct.Mode = GPIO_MODE_AF_PP;
 168              		.loc 1 102 5 view .LVU34
 102:Core/Src/stm32f4xx_hal_msp.c ****     GPIO_InitStruct.Mode = GPIO_MODE_AF_PP;
 169              		.loc 1 102 25 is_stmt 0 view .LVU35
 170 004a E023     		movs	r3, #224
 171 004c 0393     		str	r3, [sp, #12]
 103:Core/Src/stm32f4xx_hal_msp.c ****     GPIO_InitStruct.Pull = GPIO_NOPULL;
 172              		.loc 1 103 5 is_stmt 1 view .LVU36
 103:Core/Src/stm32f4xx_hal_msp.c ****     GPIO_InitStruct.Pull = GPIO_NOPULL;
 173              		.loc 1 103 26 is_stmt 0 view .LVU37
 174 004e 0223     		movs	r3, #2
 175 0050 0493     		str	r3, [sp, #16]
 104:Core/Src/stm32f4xx_hal_msp.c ****     GPIO_InitStruct.Speed = GPIO_SPEED_FREQ_VERY_HIGH;
 176              		.loc 1 104 5 is_stmt 1 view .LVU38
 105:Core/Src/stm32f4xx_hal_msp.c ****     GPIO_InitStruct.Alternate = GPIO_AF5_SPI1;
 177              		.loc 1 105 5 view .LVU39
 105:Core/Src/stm32f4xx_hal_msp.c ****     GPIO_InitStruct.Alternate = GPIO_AF5_SPI1;
 178              		.loc 1 105 27 is_stmt 0 view .LVU40
 179 0052 0323     		movs	r3, #3
 180 0054 0693     		str	r3, [sp, #24]
 106:Core/Src/stm32f4xx_hal_msp.c ****     HAL_GPIO_Init(GPIOA, &GPIO_InitStruct);
 181              		.loc 1 106 5 is_stmt 1 view .LVU41
 106:Core/Src/stm32f4xx_hal_msp.c ****     HAL_GPIO_Init(GPIOA, &GPIO_InitStruct);
 182              		.loc 1 106 31 is_stmt 0 view .LVU42
 183 0056 0523     		movs	r3, #5
 184 0058 0793     		str	r3, [sp, #28]
 107:Core/Src/stm32f4xx_hal_msp.c **** 
 185              		.loc 1 107 5 is_stmt 1 view .LVU43
 186 005a 03A9     		add	r1, sp, #12
 187 005c 0248     		ldr	r0, .L9+4
 188              	.LVL3:
 107:Core/Src/stm32f4xx_hal_msp.c **** 
 189              		.loc 1 107 5 is_stmt 0 view .LVU44
 190 005e FFF7FEFF 		bl	HAL_GPIO_Init
 191              	.LVL4:
 192              		.loc 1 115 1 view .LVU45
 193 0062 D9E7     		b	.L5
 194              	.L10:
 195              		.align	2
 196              	.L9:
 197 0064 00300140 		.word	1073819648
 198 0068 00000240 		.word	1073872896
 199              		.cfi_endproc
 200              	.LFE135:
 202              		.section	.text.HAL_SPI_MspDeInit,"ax",%progbits
 203              		.align	1
 204              		.global	HAL_SPI_MspDeInit
 205              		.syntax unified
 206              		.thumb
 207              		.thumb_func
 209              	HAL_SPI_MspDeInit:
ARM GAS  /tmp/ccXRs0DP.s 			page 7


 210              	.LVL5:
 211              	.LFB136:
 116:Core/Src/stm32f4xx_hal_msp.c **** 
 117:Core/Src/stm32f4xx_hal_msp.c **** /**
 118:Core/Src/stm32f4xx_hal_msp.c ****   * @brief SPI MSP De-Initialization
 119:Core/Src/stm32f4xx_hal_msp.c ****   * This function freeze the hardware resources used in this example
 120:Core/Src/stm32f4xx_hal_msp.c ****   * @param hspi: SPI handle pointer
 121:Core/Src/stm32f4xx_hal_msp.c ****   * @retval None
 122:Core/Src/stm32f4xx_hal_msp.c ****   */
 123:Core/Src/stm32f4xx_hal_msp.c **** void HAL_SPI_MspDeInit(SPI_HandleTypeDef* hspi)
 124:Core/Src/stm32f4xx_hal_msp.c **** {
 212              		.loc 1 124 1 is_stmt 1 view -0
 213              		.cfi_startproc
 214              		@ args = 0, pretend = 0, frame = 0
 215              		@ frame_needed = 0, uses_anonymous_args = 0
 216              		.loc 1 124 1 is_stmt 0 view .LVU47
 217 0000 08B5     		push	{r3, lr}
 218              	.LCFI6:
 219              		.cfi_def_cfa_offset 8
 220              		.cfi_offset 3, -8
 221              		.cfi_offset 14, -4
 125:Core/Src/stm32f4xx_hal_msp.c ****   if(hspi->Instance==SPI1)
 222              		.loc 1 125 3 is_stmt 1 view .LVU48
 223              		.loc 1 125 10 is_stmt 0 view .LVU49
 224 0002 0268     		ldr	r2, [r0]
 225              		.loc 1 125 5 view .LVU50
 226 0004 064B     		ldr	r3, .L15
 227 0006 9A42     		cmp	r2, r3
 228 0008 00D0     		beq	.L14
 229              	.LVL6:
 230              	.L11:
 126:Core/Src/stm32f4xx_hal_msp.c ****   {
 127:Core/Src/stm32f4xx_hal_msp.c ****     /* USER CODE BEGIN SPI1_MspDeInit 0 */
 128:Core/Src/stm32f4xx_hal_msp.c **** 
 129:Core/Src/stm32f4xx_hal_msp.c ****     /* USER CODE END SPI1_MspDeInit 0 */
 130:Core/Src/stm32f4xx_hal_msp.c ****     /* Peripheral clock disable */
 131:Core/Src/stm32f4xx_hal_msp.c ****     __HAL_RCC_SPI1_CLK_DISABLE();
 132:Core/Src/stm32f4xx_hal_msp.c **** 
 133:Core/Src/stm32f4xx_hal_msp.c ****     /**SPI1 GPIO Configuration
 134:Core/Src/stm32f4xx_hal_msp.c ****     PA5     ------> SPI1_SCK
 135:Core/Src/stm32f4xx_hal_msp.c ****     PA6     ------> SPI1_MISO
 136:Core/Src/stm32f4xx_hal_msp.c ****     PA7     ------> SPI1_MOSI
 137:Core/Src/stm32f4xx_hal_msp.c ****     */
 138:Core/Src/stm32f4xx_hal_msp.c ****     HAL_GPIO_DeInit(GPIOA, GPIO_PIN_5|GPIO_PIN_6|GPIO_PIN_7);
 139:Core/Src/stm32f4xx_hal_msp.c **** 
 140:Core/Src/stm32f4xx_hal_msp.c ****     /* USER CODE BEGIN SPI1_MspDeInit 1 */
 141:Core/Src/stm32f4xx_hal_msp.c **** 
 142:Core/Src/stm32f4xx_hal_msp.c ****     /* USER CODE END SPI1_MspDeInit 1 */
 143:Core/Src/stm32f4xx_hal_msp.c ****   }
 144:Core/Src/stm32f4xx_hal_msp.c **** 
 145:Core/Src/stm32f4xx_hal_msp.c **** }
 231              		.loc 1 145 1 view .LVU51
 232 000a 08BD     		pop	{r3, pc}
 233              	.LVL7:
 234              	.L14:
 131:Core/Src/stm32f4xx_hal_msp.c **** 
 235              		.loc 1 131 5 is_stmt 1 view .LVU52
ARM GAS  /tmp/ccXRs0DP.s 			page 8


 236 000c 054A     		ldr	r2, .L15+4
 237 000e 536C     		ldr	r3, [r2, #68]
 238 0010 23F48053 		bic	r3, r3, #4096
 239 0014 5364     		str	r3, [r2, #68]
 138:Core/Src/stm32f4xx_hal_msp.c **** 
 240              		.loc 1 138 5 view .LVU53
 241 0016 E021     		movs	r1, #224
 242 0018 0348     		ldr	r0, .L15+8
 243              	.LVL8:
 138:Core/Src/stm32f4xx_hal_msp.c **** 
 244              		.loc 1 138 5 is_stmt 0 view .LVU54
 245 001a FFF7FEFF 		bl	HAL_GPIO_DeInit
 246              	.LVL9:
 247              		.loc 1 145 1 view .LVU55
 248 001e F4E7     		b	.L11
 249              	.L16:
 250              		.align	2
 251              	.L15:
 252 0020 00300140 		.word	1073819648
 253 0024 00380240 		.word	1073887232
 254 0028 00000240 		.word	1073872896
 255              		.cfi_endproc
 256              	.LFE136:
 258              		.section	.text.HAL_UART_MspInit,"ax",%progbits
 259              		.align	1
 260              		.global	HAL_UART_MspInit
 261              		.syntax unified
 262              		.thumb
 263              		.thumb_func
 265              	HAL_UART_MspInit:
 266              	.LVL10:
 267              	.LFB137:
 146:Core/Src/stm32f4xx_hal_msp.c **** 
 147:Core/Src/stm32f4xx_hal_msp.c **** /**
 148:Core/Src/stm32f4xx_hal_msp.c ****   * @brief UART MSP Initialization
 149:Core/Src/stm32f4xx_hal_msp.c ****   * This function configures the hardware resources used in this example
 150:Core/Src/stm32f4xx_hal_msp.c ****   * @param huart: UART handle pointer
 151:Core/Src/stm32f4xx_hal_msp.c ****   * @retval None
 152:Core/Src/stm32f4xx_hal_msp.c ****   */
 153:Core/Src/stm32f4xx_hal_msp.c **** void HAL_UART_MspInit(UART_HandleTypeDef* huart)
 154:Core/Src/stm32f4xx_hal_msp.c **** {
 268              		.loc 1 154 1 is_stmt 1 view -0
 269              		.cfi_startproc
 270              		@ args = 0, pretend = 0, frame = 40
 271              		@ frame_needed = 0, uses_anonymous_args = 0
 272              		.loc 1 154 1 is_stmt 0 view .LVU57
 273 0000 00B5     		push	{lr}
 274              	.LCFI7:
 275              		.cfi_def_cfa_offset 4
 276              		.cfi_offset 14, -4
 277 0002 8BB0     		sub	sp, sp, #44
 278              	.LCFI8:
 279              		.cfi_def_cfa_offset 48
 155:Core/Src/stm32f4xx_hal_msp.c ****   GPIO_InitTypeDef GPIO_InitStruct = {0};
 280              		.loc 1 155 3 is_stmt 1 view .LVU58
 281              		.loc 1 155 20 is_stmt 0 view .LVU59
 282 0004 0023     		movs	r3, #0
ARM GAS  /tmp/ccXRs0DP.s 			page 9


 283 0006 0593     		str	r3, [sp, #20]
 284 0008 0693     		str	r3, [sp, #24]
 285 000a 0793     		str	r3, [sp, #28]
 286 000c 0893     		str	r3, [sp, #32]
 287 000e 0993     		str	r3, [sp, #36]
 156:Core/Src/stm32f4xx_hal_msp.c ****   if(huart->Instance==USART2)
 288              		.loc 1 156 3 is_stmt 1 view .LVU60
 289              		.loc 1 156 11 is_stmt 0 view .LVU61
 290 0010 0368     		ldr	r3, [r0]
 291              		.loc 1 156 5 view .LVU62
 292 0012 274A     		ldr	r2, .L23
 293 0014 9342     		cmp	r3, r2
 294 0016 04D0     		beq	.L21
 157:Core/Src/stm32f4xx_hal_msp.c ****   {
 158:Core/Src/stm32f4xx_hal_msp.c ****     /* USER CODE BEGIN USART2_MspInit 0 */
 159:Core/Src/stm32f4xx_hal_msp.c **** 
 160:Core/Src/stm32f4xx_hal_msp.c ****     /* USER CODE END USART2_MspInit 0 */
 161:Core/Src/stm32f4xx_hal_msp.c ****     /* Peripheral clock enable */
 162:Core/Src/stm32f4xx_hal_msp.c ****     __HAL_RCC_USART2_CLK_ENABLE();
 163:Core/Src/stm32f4xx_hal_msp.c **** 
 164:Core/Src/stm32f4xx_hal_msp.c ****     __HAL_RCC_GPIOA_CLK_ENABLE();
 165:Core/Src/stm32f4xx_hal_msp.c ****     /**USART2 GPIO Configuration
 166:Core/Src/stm32f4xx_hal_msp.c ****     PA2     ------> USART2_TX
 167:Core/Src/stm32f4xx_hal_msp.c ****     PA3     ------> USART2_RX
 168:Core/Src/stm32f4xx_hal_msp.c ****     */
 169:Core/Src/stm32f4xx_hal_msp.c ****     GPIO_InitStruct.Pin = GPIO_PIN_2|GPIO_PIN_3;
 170:Core/Src/stm32f4xx_hal_msp.c ****     GPIO_InitStruct.Mode = GPIO_MODE_AF_PP;
 171:Core/Src/stm32f4xx_hal_msp.c ****     GPIO_InitStruct.Pull = GPIO_NOPULL;
 172:Core/Src/stm32f4xx_hal_msp.c ****     GPIO_InitStruct.Speed = GPIO_SPEED_FREQ_VERY_HIGH;
 173:Core/Src/stm32f4xx_hal_msp.c ****     GPIO_InitStruct.Alternate = GPIO_AF7_USART2;
 174:Core/Src/stm32f4xx_hal_msp.c ****     HAL_GPIO_Init(GPIOA, &GPIO_InitStruct);
 175:Core/Src/stm32f4xx_hal_msp.c **** 
 176:Core/Src/stm32f4xx_hal_msp.c ****     /* USER CODE BEGIN USART2_MspInit 1 */
 177:Core/Src/stm32f4xx_hal_msp.c **** 
 178:Core/Src/stm32f4xx_hal_msp.c ****     /* USER CODE END USART2_MspInit 1 */
 179:Core/Src/stm32f4xx_hal_msp.c ****   }
 180:Core/Src/stm32f4xx_hal_msp.c ****   else if(huart->Instance==USART3)
 295              		.loc 1 180 8 is_stmt 1 view .LVU63
 296              		.loc 1 180 10 is_stmt 0 view .LVU64
 297 0018 264A     		ldr	r2, .L23+4
 298 001a 9342     		cmp	r3, r2
 299 001c 24D0     		beq	.L22
 300              	.LVL11:
 301              	.L17:
 181:Core/Src/stm32f4xx_hal_msp.c ****   {
 182:Core/Src/stm32f4xx_hal_msp.c ****     /* USER CODE BEGIN USART3_MspInit 0 */
 183:Core/Src/stm32f4xx_hal_msp.c **** 
 184:Core/Src/stm32f4xx_hal_msp.c ****     /* USER CODE END USART3_MspInit 0 */
 185:Core/Src/stm32f4xx_hal_msp.c ****     /* Peripheral clock enable */
 186:Core/Src/stm32f4xx_hal_msp.c ****     __HAL_RCC_USART3_CLK_ENABLE();
 187:Core/Src/stm32f4xx_hal_msp.c **** 
 188:Core/Src/stm32f4xx_hal_msp.c ****     __HAL_RCC_GPIOB_CLK_ENABLE();
 189:Core/Src/stm32f4xx_hal_msp.c ****     /**USART3 GPIO Configuration
 190:Core/Src/stm32f4xx_hal_msp.c ****     PB10     ------> USART3_TX
 191:Core/Src/stm32f4xx_hal_msp.c ****     PB11     ------> USART3_RX
 192:Core/Src/stm32f4xx_hal_msp.c ****     */
 193:Core/Src/stm32f4xx_hal_msp.c ****     GPIO_InitStruct.Pin = GPIO_PIN_10|GPIO_PIN_11;
ARM GAS  /tmp/ccXRs0DP.s 			page 10


 194:Core/Src/stm32f4xx_hal_msp.c ****     GPIO_InitStruct.Mode = GPIO_MODE_AF_PP;
 195:Core/Src/stm32f4xx_hal_msp.c ****     GPIO_InitStruct.Pull = GPIO_NOPULL;
 196:Core/Src/stm32f4xx_hal_msp.c ****     GPIO_InitStruct.Speed = GPIO_SPEED_FREQ_VERY_HIGH;
 197:Core/Src/stm32f4xx_hal_msp.c ****     GPIO_InitStruct.Alternate = GPIO_AF7_USART3;
 198:Core/Src/stm32f4xx_hal_msp.c ****     HAL_GPIO_Init(GPIOB, &GPIO_InitStruct);
 199:Core/Src/stm32f4xx_hal_msp.c **** 
 200:Core/Src/stm32f4xx_hal_msp.c ****     /* USER CODE BEGIN USART3_MspInit 1 */
 201:Core/Src/stm32f4xx_hal_msp.c **** 
 202:Core/Src/stm32f4xx_hal_msp.c ****     /* USER CODE END USART3_MspInit 1 */
 203:Core/Src/stm32f4xx_hal_msp.c ****   }
 204:Core/Src/stm32f4xx_hal_msp.c **** 
 205:Core/Src/stm32f4xx_hal_msp.c **** }
 302              		.loc 1 205 1 view .LVU65
 303 001e 0BB0     		add	sp, sp, #44
 304              	.LCFI9:
 305              		.cfi_remember_state
 306              		.cfi_def_cfa_offset 4
 307              		@ sp needed
 308 0020 00BD     		pop	{pc}
 309              	.LVL12:
 310              	.L21:
 311              	.LCFI10:
 312              		.cfi_restore_state
 162:Core/Src/stm32f4xx_hal_msp.c **** 
 313              		.loc 1 162 5 is_stmt 1 view .LVU66
 314              	.LBB6:
 162:Core/Src/stm32f4xx_hal_msp.c **** 
 315              		.loc 1 162 5 view .LVU67
 316 0022 0021     		movs	r1, #0
 317 0024 0191     		str	r1, [sp, #4]
 162:Core/Src/stm32f4xx_hal_msp.c **** 
 318              		.loc 1 162 5 view .LVU68
 319 0026 244B     		ldr	r3, .L23+8
 320 0028 1A6C     		ldr	r2, [r3, #64]
 321 002a 42F40032 		orr	r2, r2, #131072
 322 002e 1A64     		str	r2, [r3, #64]
 162:Core/Src/stm32f4xx_hal_msp.c **** 
 323              		.loc 1 162 5 view .LVU69
 324 0030 1A6C     		ldr	r2, [r3, #64]
 325 0032 02F40032 		and	r2, r2, #131072
 326 0036 0192     		str	r2, [sp, #4]
 162:Core/Src/stm32f4xx_hal_msp.c **** 
 327              		.loc 1 162 5 view .LVU70
 328 0038 019A     		ldr	r2, [sp, #4]
 329              	.LBE6:
 162:Core/Src/stm32f4xx_hal_msp.c **** 
 330              		.loc 1 162 5 view .LVU71
 164:Core/Src/stm32f4xx_hal_msp.c ****     /**USART2 GPIO Configuration
 331              		.loc 1 164 5 view .LVU72
 332              	.LBB7:
 164:Core/Src/stm32f4xx_hal_msp.c ****     /**USART2 GPIO Configuration
 333              		.loc 1 164 5 view .LVU73
 334 003a 0291     		str	r1, [sp, #8]
 164:Core/Src/stm32f4xx_hal_msp.c ****     /**USART2 GPIO Configuration
 335              		.loc 1 164 5 view .LVU74
 336 003c 1A6B     		ldr	r2, [r3, #48]
 337 003e 42F00102 		orr	r2, r2, #1
ARM GAS  /tmp/ccXRs0DP.s 			page 11


 338 0042 1A63     		str	r2, [r3, #48]
 164:Core/Src/stm32f4xx_hal_msp.c ****     /**USART2 GPIO Configuration
 339              		.loc 1 164 5 view .LVU75
 340 0044 1B6B     		ldr	r3, [r3, #48]
 341 0046 03F00103 		and	r3, r3, #1
 342 004a 0293     		str	r3, [sp, #8]
 164:Core/Src/stm32f4xx_hal_msp.c ****     /**USART2 GPIO Configuration
 343              		.loc 1 164 5 view .LVU76
 344 004c 029B     		ldr	r3, [sp, #8]
 345              	.LBE7:
 164:Core/Src/stm32f4xx_hal_msp.c ****     /**USART2 GPIO Configuration
 346              		.loc 1 164 5 view .LVU77
 169:Core/Src/stm32f4xx_hal_msp.c ****     GPIO_InitStruct.Mode = GPIO_MODE_AF_PP;
 347              		.loc 1 169 5 view .LVU78
 169:Core/Src/stm32f4xx_hal_msp.c ****     GPIO_InitStruct.Mode = GPIO_MODE_AF_PP;
 348              		.loc 1 169 25 is_stmt 0 view .LVU79
 349 004e 0C23     		movs	r3, #12
 350 0050 0593     		str	r3, [sp, #20]
 170:Core/Src/stm32f4xx_hal_msp.c ****     GPIO_InitStruct.Pull = GPIO_NOPULL;
 351              		.loc 1 170 5 is_stmt 1 view .LVU80
 170:Core/Src/stm32f4xx_hal_msp.c ****     GPIO_InitStruct.Pull = GPIO_NOPULL;
 352              		.loc 1 170 26 is_stmt 0 view .LVU81
 353 0052 0223     		movs	r3, #2
 354 0054 0693     		str	r3, [sp, #24]
 171:Core/Src/stm32f4xx_hal_msp.c ****     GPIO_InitStruct.Speed = GPIO_SPEED_FREQ_VERY_HIGH;
 355              		.loc 1 171 5 is_stmt 1 view .LVU82
 172:Core/Src/stm32f4xx_hal_msp.c ****     GPIO_InitStruct.Alternate = GPIO_AF7_USART2;
 356              		.loc 1 172 5 view .LVU83
 172:Core/Src/stm32f4xx_hal_msp.c ****     GPIO_InitStruct.Alternate = GPIO_AF7_USART2;
 357              		.loc 1 172 27 is_stmt 0 view .LVU84
 358 0056 0323     		movs	r3, #3
 359 0058 0893     		str	r3, [sp, #32]
 173:Core/Src/stm32f4xx_hal_msp.c ****     HAL_GPIO_Init(GPIOA, &GPIO_InitStruct);
 360              		.loc 1 173 5 is_stmt 1 view .LVU85
 173:Core/Src/stm32f4xx_hal_msp.c ****     HAL_GPIO_Init(GPIOA, &GPIO_InitStruct);
 361              		.loc 1 173 31 is_stmt 0 view .LVU86
 362 005a 0723     		movs	r3, #7
 363 005c 0993     		str	r3, [sp, #36]
 174:Core/Src/stm32f4xx_hal_msp.c **** 
 364              		.loc 1 174 5 is_stmt 1 view .LVU87
 365 005e 05A9     		add	r1, sp, #20
 366 0060 1648     		ldr	r0, .L23+12
 367              	.LVL13:
 174:Core/Src/stm32f4xx_hal_msp.c **** 
 368              		.loc 1 174 5 is_stmt 0 view .LVU88
 369 0062 FFF7FEFF 		bl	HAL_GPIO_Init
 370              	.LVL14:
 371 0066 DAE7     		b	.L17
 372              	.LVL15:
 373              	.L22:
 186:Core/Src/stm32f4xx_hal_msp.c **** 
 374              		.loc 1 186 5 is_stmt 1 view .LVU89
 375              	.LBB8:
 186:Core/Src/stm32f4xx_hal_msp.c **** 
 376              		.loc 1 186 5 view .LVU90
 377 0068 0021     		movs	r1, #0
 378 006a 0391     		str	r1, [sp, #12]
ARM GAS  /tmp/ccXRs0DP.s 			page 12


 186:Core/Src/stm32f4xx_hal_msp.c **** 
 379              		.loc 1 186 5 view .LVU91
 380 006c 124B     		ldr	r3, .L23+8
 381 006e 1A6C     		ldr	r2, [r3, #64]
 382 0070 42F48022 		orr	r2, r2, #262144
 383 0074 1A64     		str	r2, [r3, #64]
 186:Core/Src/stm32f4xx_hal_msp.c **** 
 384              		.loc 1 186 5 view .LVU92
 385 0076 1A6C     		ldr	r2, [r3, #64]
 386 0078 02F48022 		and	r2, r2, #262144
 387 007c 0392     		str	r2, [sp, #12]
 186:Core/Src/stm32f4xx_hal_msp.c **** 
 388              		.loc 1 186 5 view .LVU93
 389 007e 039A     		ldr	r2, [sp, #12]
 390              	.LBE8:
 186:Core/Src/stm32f4xx_hal_msp.c **** 
 391              		.loc 1 186 5 view .LVU94
 188:Core/Src/stm32f4xx_hal_msp.c ****     /**USART3 GPIO Configuration
 392              		.loc 1 188 5 view .LVU95
 393              	.LBB9:
 188:Core/Src/stm32f4xx_hal_msp.c ****     /**USART3 GPIO Configuration
 394              		.loc 1 188 5 view .LVU96
 395 0080 0491     		str	r1, [sp, #16]
 188:Core/Src/stm32f4xx_hal_msp.c ****     /**USART3 GPIO Configuration
 396              		.loc 1 188 5 view .LVU97
 397 0082 1A6B     		ldr	r2, [r3, #48]
 398 0084 42F00202 		orr	r2, r2, #2
 399 0088 1A63     		str	r2, [r3, #48]
 188:Core/Src/stm32f4xx_hal_msp.c ****     /**USART3 GPIO Configuration
 400              		.loc 1 188 5 view .LVU98
 401 008a 1B6B     		ldr	r3, [r3, #48]
 402 008c 03F00203 		and	r3, r3, #2
 403 0090 0493     		str	r3, [sp, #16]
 188:Core/Src/stm32f4xx_hal_msp.c ****     /**USART3 GPIO Configuration
 404              		.loc 1 188 5 view .LVU99
 405 0092 049B     		ldr	r3, [sp, #16]
 406              	.LBE9:
 188:Core/Src/stm32f4xx_hal_msp.c ****     /**USART3 GPIO Configuration
 407              		.loc 1 188 5 view .LVU100
 193:Core/Src/stm32f4xx_hal_msp.c ****     GPIO_InitStruct.Mode = GPIO_MODE_AF_PP;
 408              		.loc 1 193 5 view .LVU101
 193:Core/Src/stm32f4xx_hal_msp.c ****     GPIO_InitStruct.Mode = GPIO_MODE_AF_PP;
 409              		.loc 1 193 25 is_stmt 0 view .LVU102
 410 0094 4FF44063 		mov	r3, #3072
 411 0098 0593     		str	r3, [sp, #20]
 194:Core/Src/stm32f4xx_hal_msp.c ****     GPIO_InitStruct.Pull = GPIO_NOPULL;
 412              		.loc 1 194 5 is_stmt 1 view .LVU103
 194:Core/Src/stm32f4xx_hal_msp.c ****     GPIO_InitStruct.Pull = GPIO_NOPULL;
 413              		.loc 1 194 26 is_stmt 0 view .LVU104
 414 009a 0223     		movs	r3, #2
 415 009c 0693     		str	r3, [sp, #24]
 195:Core/Src/stm32f4xx_hal_msp.c ****     GPIO_InitStruct.Speed = GPIO_SPEED_FREQ_VERY_HIGH;
 416              		.loc 1 195 5 is_stmt 1 view .LVU105
 196:Core/Src/stm32f4xx_hal_msp.c ****     GPIO_InitStruct.Alternate = GPIO_AF7_USART3;
 417              		.loc 1 196 5 view .LVU106
 196:Core/Src/stm32f4xx_hal_msp.c ****     GPIO_InitStruct.Alternate = GPIO_AF7_USART3;
 418              		.loc 1 196 27 is_stmt 0 view .LVU107
ARM GAS  /tmp/ccXRs0DP.s 			page 13


 419 009e 0323     		movs	r3, #3
 420 00a0 0893     		str	r3, [sp, #32]
 197:Core/Src/stm32f4xx_hal_msp.c ****     HAL_GPIO_Init(GPIOB, &GPIO_InitStruct);
 421              		.loc 1 197 5 is_stmt 1 view .LVU108
 197:Core/Src/stm32f4xx_hal_msp.c ****     HAL_GPIO_Init(GPIOB, &GPIO_InitStruct);
 422              		.loc 1 197 31 is_stmt 0 view .LVU109
 423 00a2 0723     		movs	r3, #7
 424 00a4 0993     		str	r3, [sp, #36]
 198:Core/Src/stm32f4xx_hal_msp.c **** 
 425              		.loc 1 198 5 is_stmt 1 view .LVU110
 426 00a6 05A9     		add	r1, sp, #20
 427 00a8 0548     		ldr	r0, .L23+16
 428              	.LVL16:
 198:Core/Src/stm32f4xx_hal_msp.c **** 
 429              		.loc 1 198 5 is_stmt 0 view .LVU111
 430 00aa FFF7FEFF 		bl	HAL_GPIO_Init
 431              	.LVL17:
 432              		.loc 1 205 1 view .LVU112
 433 00ae B6E7     		b	.L17
 434              	.L24:
 435              		.align	2
 436              	.L23:
 437 00b0 00440040 		.word	1073759232
 438 00b4 00480040 		.word	1073760256
 439 00b8 00380240 		.word	1073887232
 440 00bc 00000240 		.word	1073872896
 441 00c0 00040240 		.word	1073873920
 442              		.cfi_endproc
 443              	.LFE137:
 445              		.section	.text.HAL_UART_MspDeInit,"ax",%progbits
 446              		.align	1
 447              		.global	HAL_UART_MspDeInit
 448              		.syntax unified
 449              		.thumb
 450              		.thumb_func
 452              	HAL_UART_MspDeInit:
 453              	.LVL18:
 454              	.LFB138:
 206:Core/Src/stm32f4xx_hal_msp.c **** 
 207:Core/Src/stm32f4xx_hal_msp.c **** /**
 208:Core/Src/stm32f4xx_hal_msp.c ****   * @brief UART MSP De-Initialization
 209:Core/Src/stm32f4xx_hal_msp.c ****   * This function freeze the hardware resources used in this example
 210:Core/Src/stm32f4xx_hal_msp.c ****   * @param huart: UART handle pointer
 211:Core/Src/stm32f4xx_hal_msp.c ****   * @retval None
 212:Core/Src/stm32f4xx_hal_msp.c ****   */
 213:Core/Src/stm32f4xx_hal_msp.c **** void HAL_UART_MspDeInit(UART_HandleTypeDef* huart)
 214:Core/Src/stm32f4xx_hal_msp.c **** {
 455              		.loc 1 214 1 is_stmt 1 view -0
 456              		.cfi_startproc
 457              		@ args = 0, pretend = 0, frame = 0
 458              		@ frame_needed = 0, uses_anonymous_args = 0
 459              		.loc 1 214 1 is_stmt 0 view .LVU114
 460 0000 08B5     		push	{r3, lr}
 461              	.LCFI11:
 462              		.cfi_def_cfa_offset 8
 463              		.cfi_offset 3, -8
 464              		.cfi_offset 14, -4
ARM GAS  /tmp/ccXRs0DP.s 			page 14


 215:Core/Src/stm32f4xx_hal_msp.c ****   if(huart->Instance==USART2)
 465              		.loc 1 215 3 is_stmt 1 view .LVU115
 466              		.loc 1 215 11 is_stmt 0 view .LVU116
 467 0002 0368     		ldr	r3, [r0]
 468              		.loc 1 215 5 view .LVU117
 469 0004 0E4A     		ldr	r2, .L31
 470 0006 9342     		cmp	r3, r2
 471 0008 03D0     		beq	.L29
 216:Core/Src/stm32f4xx_hal_msp.c ****   {
 217:Core/Src/stm32f4xx_hal_msp.c ****     /* USER CODE BEGIN USART2_MspDeInit 0 */
 218:Core/Src/stm32f4xx_hal_msp.c **** 
 219:Core/Src/stm32f4xx_hal_msp.c ****     /* USER CODE END USART2_MspDeInit 0 */
 220:Core/Src/stm32f4xx_hal_msp.c ****     /* Peripheral clock disable */
 221:Core/Src/stm32f4xx_hal_msp.c ****     __HAL_RCC_USART2_CLK_DISABLE();
 222:Core/Src/stm32f4xx_hal_msp.c **** 
 223:Core/Src/stm32f4xx_hal_msp.c ****     /**USART2 GPIO Configuration
 224:Core/Src/stm32f4xx_hal_msp.c ****     PA2     ------> USART2_TX
 225:Core/Src/stm32f4xx_hal_msp.c ****     PA3     ------> USART2_RX
 226:Core/Src/stm32f4xx_hal_msp.c ****     */
 227:Core/Src/stm32f4xx_hal_msp.c ****     HAL_GPIO_DeInit(GPIOA, GPIO_PIN_2|GPIO_PIN_3);
 228:Core/Src/stm32f4xx_hal_msp.c **** 
 229:Core/Src/stm32f4xx_hal_msp.c ****     /* USER CODE BEGIN USART2_MspDeInit 1 */
 230:Core/Src/stm32f4xx_hal_msp.c **** 
 231:Core/Src/stm32f4xx_hal_msp.c ****     /* USER CODE END USART2_MspDeInit 1 */
 232:Core/Src/stm32f4xx_hal_msp.c ****   }
 233:Core/Src/stm32f4xx_hal_msp.c ****   else if(huart->Instance==USART3)
 472              		.loc 1 233 8 is_stmt 1 view .LVU118
 473              		.loc 1 233 10 is_stmt 0 view .LVU119
 474 000a 0E4A     		ldr	r2, .L31+4
 475 000c 9342     		cmp	r3, r2
 476 000e 0BD0     		beq	.L30
 477              	.LVL19:
 478              	.L25:
 234:Core/Src/stm32f4xx_hal_msp.c ****   {
 235:Core/Src/stm32f4xx_hal_msp.c ****     /* USER CODE BEGIN USART3_MspDeInit 0 */
 236:Core/Src/stm32f4xx_hal_msp.c **** 
 237:Core/Src/stm32f4xx_hal_msp.c ****     /* USER CODE END USART3_MspDeInit 0 */
 238:Core/Src/stm32f4xx_hal_msp.c ****     /* Peripheral clock disable */
 239:Core/Src/stm32f4xx_hal_msp.c ****     __HAL_RCC_USART3_CLK_DISABLE();
 240:Core/Src/stm32f4xx_hal_msp.c **** 
 241:Core/Src/stm32f4xx_hal_msp.c ****     /**USART3 GPIO Configuration
 242:Core/Src/stm32f4xx_hal_msp.c ****     PB10     ------> USART3_TX
 243:Core/Src/stm32f4xx_hal_msp.c ****     PB11     ------> USART3_RX
 244:Core/Src/stm32f4xx_hal_msp.c ****     */
 245:Core/Src/stm32f4xx_hal_msp.c ****     HAL_GPIO_DeInit(GPIOB, GPIO_PIN_10|GPIO_PIN_11);
 246:Core/Src/stm32f4xx_hal_msp.c **** 
 247:Core/Src/stm32f4xx_hal_msp.c ****     /* USER CODE BEGIN USART3_MspDeInit 1 */
 248:Core/Src/stm32f4xx_hal_msp.c **** 
 249:Core/Src/stm32f4xx_hal_msp.c ****     /* USER CODE END USART3_MspDeInit 1 */
 250:Core/Src/stm32f4xx_hal_msp.c ****   }
 251:Core/Src/stm32f4xx_hal_msp.c **** 
 252:Core/Src/stm32f4xx_hal_msp.c **** }
 479              		.loc 1 252 1 view .LVU120
 480 0010 08BD     		pop	{r3, pc}
 481              	.LVL20:
 482              	.L29:
 221:Core/Src/stm32f4xx_hal_msp.c **** 
ARM GAS  /tmp/ccXRs0DP.s 			page 15


 483              		.loc 1 221 5 is_stmt 1 view .LVU121
 484 0012 02F5FA32 		add	r2, r2, #128000
 485 0016 136C     		ldr	r3, [r2, #64]
 486 0018 23F40033 		bic	r3, r3, #131072
 487 001c 1364     		str	r3, [r2, #64]
 227:Core/Src/stm32f4xx_hal_msp.c **** 
 488              		.loc 1 227 5 view .LVU122
 489 001e 0C21     		movs	r1, #12
 490 0020 0948     		ldr	r0, .L31+8
 491              	.LVL21:
 227:Core/Src/stm32f4xx_hal_msp.c **** 
 492              		.loc 1 227 5 is_stmt 0 view .LVU123
 493 0022 FFF7FEFF 		bl	HAL_GPIO_DeInit
 494              	.LVL22:
 495 0026 F3E7     		b	.L25
 496              	.LVL23:
 497              	.L30:
 239:Core/Src/stm32f4xx_hal_msp.c **** 
 498              		.loc 1 239 5 is_stmt 1 view .LVU124
 499 0028 02F5F832 		add	r2, r2, #126976
 500 002c 136C     		ldr	r3, [r2, #64]
 501 002e 23F48023 		bic	r3, r3, #262144
 502 0032 1364     		str	r3, [r2, #64]
 245:Core/Src/stm32f4xx_hal_msp.c **** 
 503              		.loc 1 245 5 view .LVU125
 504 0034 4FF44061 		mov	r1, #3072
 505 0038 0448     		ldr	r0, .L31+12
 506              	.LVL24:
 245:Core/Src/stm32f4xx_hal_msp.c **** 
 507              		.loc 1 245 5 is_stmt 0 view .LVU126
 508 003a FFF7FEFF 		bl	HAL_GPIO_DeInit
 509              	.LVL25:
 510              		.loc 1 252 1 view .LVU127
 511 003e E7E7     		b	.L25
 512              	.L32:
 513              		.align	2
 514              	.L31:
 515 0040 00440040 		.word	1073759232
 516 0044 00480040 		.word	1073760256
 517 0048 00000240 		.word	1073872896
 518 004c 00040240 		.word	1073873920
 519              		.cfi_endproc
 520              	.LFE138:
 522              		.text
 523              	.Letext0:
 524              		.file 2 "/usr/arm-none-eabi/include/machine/_default_types.h"
 525              		.file 3 "/usr/arm-none-eabi/include/sys/_stdint.h"
 526              		.file 4 "Drivers/CMSIS/Device/ST/STM32F4xx/Include/stm32f407xx.h"
 527              		.file 5 "Drivers/STM32F4xx_HAL_Driver/Inc/stm32f4xx_hal_def.h"
 528              		.file 6 "Drivers/STM32F4xx_HAL_Driver/Inc/stm32f4xx_hal_gpio.h"
 529              		.file 7 "Drivers/STM32F4xx_HAL_Driver/Inc/stm32f4xx_hal_dma.h"
 530              		.file 8 "Drivers/STM32F4xx_HAL_Driver/Inc/stm32f4xx_hal_spi.h"
 531              		.file 9 "Drivers/STM32F4xx_HAL_Driver/Inc/stm32f4xx_hal_uart.h"
ARM GAS  /tmp/ccXRs0DP.s 			page 16

